target datalayout = "e-m:e-p270:32:32-p271:32:32-p272:64:64-i64:64-i128:128-f80:128-n8:16:32:64-S128"
target triple = "x86_64-pc-linux-gnu"

%struct.mlib_affine_param = type { ptr, ptr, ptr, ptr, ptr, ptr, ptr, ptr, ptr, i32, i32, i32, i32, i32, i32, i32, ptr, i32 }

; Function Attrs: nounwind uwtable
define hidden i32 @mlib_ImageAffine_d64_2ch_bl(ptr noundef %0) #0 {
  %2 = alloca ptr, align 8
  %3 = alloca ptr, align 8
  %4 = alloca ptr, align 8
  %5 = alloca ptr, align 8
  %6 = alloca ptr, align 8
  %7 = alloca ptr, align 8
  %8 = alloca ptr, align 8
  %9 = alloca i32, align 4
  %10 = alloca i32, align 4
  %11 = alloca i32, align 4
  %12 = alloca i32, align 4
  %13 = alloca i32, align 4
  %14 = alloca i32, align 4
  %15 = alloca i32, align 4
  %16 = alloca i32, align 4
  %17 = alloca i32, align 4
  %18 = alloca i32, align 4
  %19 = alloca ptr, align 8
  %20 = alloca ptr, align 8
  %21 = alloca ptr, align 8
  %22 = alloca i32, align 4
  %23 = alloca i32, align 4
  %24 = alloca i32, align 4
  %25 = alloca ptr, align 8
  %26 = alloca double, align 8
  %27 = alloca ptr, align 8
  %28 = alloca double, align 8
  %29 = alloca double, align 8
  %30 = alloca double, align 8
  %31 = alloca double, align 8
  %32 = alloca double, align 8
  %33 = alloca double, align 8
  %34 = alloca double, align 8
  %35 = alloca double, align 8
  %36 = alloca double, align 8
  %37 = alloca double, align 8
  %38 = alloca double, align 8
  %39 = alloca double, align 8
  %40 = alloca double, align 8
  %41 = alloca double, align 8
  %42 = alloca double, align 8
  %43 = alloca double, align 8
  store ptr %0, ptr %2, align 8
  %44 = load ptr, ptr %2, align 8
  %45 = getelementptr inbounds %struct.mlib_affine_param, ptr %44, i32 0, i32 5
  %46 = load ptr, ptr %45, align 8
  store ptr %46, ptr %3, align 8
  %47 = load ptr, ptr %2, align 8
  %48 = getelementptr inbounds %struct.mlib_affine_param, ptr %47, i32 0, i32 6
  %49 = load ptr, ptr %48, align 8
  store ptr %49, ptr %4, align 8
  %50 = load ptr, ptr %2, align 8
  %51 = getelementptr inbounds %struct.mlib_affine_param, ptr %50, i32 0, i32 7
  %52 = load ptr, ptr %51, align 8
  store ptr %52, ptr %5, align 8
  %53 = load ptr, ptr %2, align 8
  %54 = getelementptr inbounds %struct.mlib_affine_param, ptr %53, i32 0, i32 8
  %55 = load ptr, ptr %54, align 8
  store ptr %55, ptr %6, align 8
  %56 = load ptr, ptr %2, align 8
  %57 = getelementptr inbounds %struct.mlib_affine_param, ptr %56, i32 0, i32 4
  %58 = load ptr, ptr %57, align 8
  store ptr %58, ptr %7, align 8
  %59 = load ptr, ptr %2, align 8
  %60 = getelementptr inbounds %struct.mlib_affine_param, ptr %59, i32 0, i32 3
  %61 = load ptr, ptr %60, align 8
  store ptr %61, ptr %8, align 8
  %62 = load ptr, ptr %2, align 8
  %63 = getelementptr inbounds %struct.mlib_affine_param, ptr %62, i32 0, i32 15
  %64 = load i32, ptr %63, align 8
  store i32 %64, ptr %9, align 4
  %65 = load ptr, ptr %2, align 8
  %66 = getelementptr inbounds %struct.mlib_affine_param, ptr %65, i32 0, i32 9
  %67 = load i32, ptr %66, align 8
  store i32 %67, ptr %14, align 4
  %68 = load ptr, ptr %2, align 8
  %69 = getelementptr inbounds %struct.mlib_affine_param, ptr %68, i32 0, i32 10
  %70 = load i32, ptr %69, align 4
  store i32 %70, ptr %15, align 4
  %71 = load ptr, ptr %2, align 8
  %72 = getelementptr inbounds %struct.mlib_affine_param, ptr %71, i32 0, i32 11
  %73 = load i32, ptr %72, align 8
  store i32 %73, ptr %16, align 4
  %74 = load ptr, ptr %2, align 8
  %75 = getelementptr inbounds %struct.mlib_affine_param, ptr %74, i32 0, i32 12
  %76 = load i32, ptr %75, align 4
  store i32 %76, ptr %17, align 4
  %77 = load ptr, ptr %2, align 8
  %78 = getelementptr inbounds %struct.mlib_affine_param, ptr %77, i32 0, i32 16
  %79 = load ptr, ptr %78, align 8
  store ptr %79, ptr %19, align 8
  %80 = load ptr, ptr %2, align 8
  %81 = getelementptr inbounds %struct.mlib_affine_param, ptr %80, i32 0, i32 14
  %82 = load i32, ptr %81, align 4
  store i32 %82, ptr %24, align 4
  store double 0x3EF0000000000000, ptr %26, align 8
  %83 = load i32, ptr %14, align 4
  store i32 %83, ptr %18, align 4
  br label %84

84:                                               ; preds = %362, %1
  %85 = load i32, ptr %18, align 4
  %86 = load i32, ptr %15, align 4
  %87 = icmp sle i32 %85, %86
  br i1 %87, label %88, label %365

88:                                               ; preds = %84
  %89 = load i32, ptr %9, align 4
  %90 = load ptr, ptr %7, align 8
  %91 = sext i32 %89 to i64
  %92 = getelementptr inbounds i8, ptr %90, i64 %91
  store ptr %92, ptr %7, align 8
  %93 = load ptr, ptr %3, align 8
  %94 = load i32, ptr %18, align 4
  %95 = sext i32 %94 to i64
  %96 = getelementptr inbounds i32, ptr %93, i64 %95
  %97 = load i32, ptr %96, align 4
  store i32 %97, ptr %10, align 4
  %98 = load ptr, ptr %4, align 8
  %99 = load i32, ptr %18, align 4
  %100 = sext i32 %99 to i64
  %101 = getelementptr inbounds i32, ptr %98, i64 %100
  %102 = load i32, ptr %101, align 4
  store i32 %102, ptr %11, align 4
  %103 = load ptr, ptr %5, align 8
  %104 = load i32, ptr %18, align 4
  %105 = sext i32 %104 to i64
  %106 = getelementptr inbounds i32, ptr %103, i64 %105
  %107 = load i32, ptr %106, align 4
  store i32 %107, ptr %12, align 4
  %108 = load ptr, ptr %6, align 8
  %109 = load i32, ptr %18, align 4
  %110 = sext i32 %109 to i64
  %111 = getelementptr inbounds i32, ptr %108, i64 %110
  %112 = load i32, ptr %111, align 4
  store i32 %112, ptr %13, align 4
  %113 = load ptr, ptr %19, align 8
  %114 = icmp ne ptr %113, null
  br i1 %114, label %115, label %129

115:                                              ; preds = %88
  %116 = load ptr, ptr %19, align 8
  %117 = load i32, ptr %18, align 4
  %118 = mul nsw i32 2, %117
  %119 = sext i32 %118 to i64
  %120 = getelementptr inbounds i32, ptr %116, i64 %119
  %121 = load i32, ptr %120, align 4
  store i32 %121, ptr %16, align 4
  %122 = load ptr, ptr %19, align 8
  %123 = load i32, ptr %18, align 4
  %124 = mul nsw i32 2, %123
  %125 = add nsw i32 %124, 1
  %126 = sext i32 %125 to i64
  %127 = getelementptr inbounds i32, ptr %122, i64 %126
  %128 = load i32, ptr %127, align 4
  store i32 %128, ptr %17, align 4
  br label %129

129:                                              ; preds = %115, %88
  %130 = load i32, ptr %10, align 4
  %131 = load i32, ptr %11, align 4
  %132 = icmp sgt i32 %130, %131
  br i1 %132, label %133, label %134

133:                                              ; preds = %129
  br label %362

134:                                              ; preds = %129
  %135 = load ptr, ptr %7, align 8
  %136 = load i32, ptr %10, align 4
  %137 = mul nsw i32 2, %136
  %138 = sext i32 %137 to i64
  %139 = getelementptr inbounds double, ptr %135, i64 %138
  store ptr %139, ptr %20, align 8
  %140 = load ptr, ptr %7, align 8
  %141 = load i32, ptr %11, align 4
  %142 = mul nsw i32 2, %141
  %143 = sext i32 %142 to i64
  %144 = getelementptr inbounds double, ptr %140, i64 %143
  store ptr %144, ptr %25, align 8
  %145 = load i32, ptr %12, align 4
  %146 = and i32 %145, 65535
  %147 = sitofp i32 %146 to double
  %148 = load double, ptr %26, align 8
  %149 = fmul double %147, %148
  store double %149, ptr %28, align 8
  %150 = load i32, ptr %13, align 4
  %151 = and i32 %150, 65535
  %152 = sitofp i32 %151 to double
  %153 = load double, ptr %26, align 8
  %154 = fmul double %152, %153
  store double %154, ptr %29, align 8
  %155 = load i32, ptr %13, align 4
  %156 = ashr i32 %155, 13
  %157 = and i32 %156, -8
  store i32 %157, ptr %23, align 4
  %158 = load i32, ptr %17, align 4
  %159 = load i32, ptr %13, align 4
  %160 = add nsw i32 %159, %158
  store i32 %160, ptr %13, align 4
  %161 = load i32, ptr %12, align 4
  %162 = ashr i32 %161, 16
  store i32 %162, ptr %22, align 4
  %163 = load i32, ptr %16, align 4
  %164 = load i32, ptr %12, align 4
  %165 = add nsw i32 %164, %163
  store i32 %165, ptr %12, align 4
  %166 = load ptr, ptr %8, align 8
  %167 = load i32, ptr %23, align 4
  %168 = sext i32 %167 to i64
  %169 = getelementptr inbounds i8, ptr %166, i64 %168
  %170 = load ptr, ptr %169, align 8
  %171 = load i32, ptr %22, align 4
  %172 = mul nsw i32 2, %171
  %173 = sext i32 %172 to i64
  %174 = getelementptr inbounds double, ptr %170, i64 %173
  store ptr %174, ptr %21, align 8
  %175 = load ptr, ptr %21, align 8
  %176 = load i32, ptr %24, align 4
  %177 = sext i32 %176 to i64
  %178 = getelementptr inbounds i8, ptr %175, i64 %177
  store ptr %178, ptr %27, align 8
  %179 = load double, ptr %28, align 8
  %180 = load double, ptr %29, align 8
  %181 = fmul double %179, %180
  store double %181, ptr %33, align 8
  %182 = load double, ptr %28, align 8
  %183 = fsub double 1.000000e+00, %182
  %184 = load double, ptr %29, align 8
  %185 = fmul double %183, %184
  store double %185, ptr %32, align 8
  %186 = load double, ptr %28, align 8
  %187 = load double, ptr %29, align 8
  %188 = fsub double 1.000000e+00, %187
  %189 = fmul double %186, %188
  store double %189, ptr %31, align 8
  %190 = load double, ptr %28, align 8
  %191 = fsub double 1.000000e+00, %190
  %192 = load double, ptr %29, align 8
  %193 = fsub double 1.000000e+00, %192
  %194 = fmul double %191, %193
  store double %194, ptr %30, align 8
  %195 = load ptr, ptr %21, align 8
  %196 = getelementptr inbounds double, ptr %195, i64 0
  %197 = load double, ptr %196, align 8
  store double %197, ptr %34, align 8
  %198 = load ptr, ptr %21, align 8
  %199 = getelementptr inbounds double, ptr %198, i64 1
  %200 = load double, ptr %199, align 8
  store double %200, ptr %38, align 8
  %201 = load ptr, ptr %21, align 8
  %202 = getelementptr inbounds double, ptr %201, i64 2
  %203 = load double, ptr %202, align 8
  store double %203, ptr %35, align 8
  %204 = load ptr, ptr %21, align 8
  %205 = getelementptr inbounds double, ptr %204, i64 3
  %206 = load double, ptr %205, align 8
  store double %206, ptr %39, align 8
  %207 = load ptr, ptr %27, align 8
  %208 = getelementptr inbounds double, ptr %207, i64 0
  %209 = load double, ptr %208, align 8
  store double %209, ptr %36, align 8
  %210 = load ptr, ptr %27, align 8
  %211 = getelementptr inbounds double, ptr %210, i64 1
  %212 = load double, ptr %211, align 8
  store double %212, ptr %40, align 8
  %213 = load ptr, ptr %27, align 8
  %214 = getelementptr inbounds double, ptr %213, i64 2
  %215 = load double, ptr %214, align 8
  store double %215, ptr %37, align 8
  %216 = load ptr, ptr %27, align 8
  %217 = getelementptr inbounds double, ptr %216, i64 3
  %218 = load double, ptr %217, align 8
  store double %218, ptr %41, align 8
  br label %219

219:                                              ; preds = %328, %134
  %220 = load ptr, ptr %20, align 8
  %221 = load ptr, ptr %25, align 8
  %222 = icmp ult ptr %220, %221
  br i1 %222, label %223, label %331

223:                                              ; preds = %219
  %224 = load double, ptr %30, align 8
  %225 = load double, ptr %34, align 8
  %226 = load double, ptr %31, align 8
  %227 = load double, ptr %35, align 8
  %228 = fmul double %226, %227
  %229 = call double @llvm.fmuladd.f64(double %224, double %225, double %228)
  %230 = load double, ptr %32, align 8
  %231 = load double, ptr %36, align 8
  %232 = call double @llvm.fmuladd.f64(double %230, double %231, double %229)
  %233 = load double, ptr %33, align 8
  %234 = load double, ptr %37, align 8
  %235 = call double @llvm.fmuladd.f64(double %233, double %234, double %232)
  store double %235, ptr %42, align 8
  %236 = load double, ptr %30, align 8
  %237 = load double, ptr %38, align 8
  %238 = load double, ptr %31, align 8
  %239 = load double, ptr %39, align 8
  %240 = fmul double %238, %239
  %241 = call double @llvm.fmuladd.f64(double %236, double %237, double %240)
  %242 = load double, ptr %32, align 8
  %243 = load double, ptr %40, align 8
  %244 = call double @llvm.fmuladd.f64(double %242, double %243, double %241)
  %245 = load double, ptr %33, align 8
  %246 = load double, ptr %41, align 8
  %247 = call double @llvm.fmuladd.f64(double %245, double %246, double %244)
  store double %247, ptr %43, align 8
  %248 = load i32, ptr %12, align 4
  %249 = and i32 %248, 65535
  %250 = sitofp i32 %249 to double
  %251 = load double, ptr %26, align 8
  %252 = fmul double %250, %251
  store double %252, ptr %28, align 8
  %253 = load i32, ptr %13, align 4
  %254 = and i32 %253, 65535
  %255 = sitofp i32 %254 to double
  %256 = load double, ptr %26, align 8
  %257 = fmul double %255, %256
  store double %257, ptr %29, align 8
  %258 = load i32, ptr %13, align 4
  %259 = ashr i32 %258, 13
  %260 = and i32 %259, -8
  store i32 %260, ptr %23, align 4
  %261 = load i32, ptr %17, align 4
  %262 = load i32, ptr %13, align 4
  %263 = add nsw i32 %262, %261
  store i32 %263, ptr %13, align 4
  %264 = load i32, ptr %12, align 4
  %265 = ashr i32 %264, 16
  store i32 %265, ptr %22, align 4
  %266 = load i32, ptr %16, align 4
  %267 = load i32, ptr %12, align 4
  %268 = add nsw i32 %267, %266
  store i32 %268, ptr %12, align 4
  %269 = load ptr, ptr %8, align 8
  %270 = load i32, ptr %23, align 4
  %271 = sext i32 %270 to i64
  %272 = getelementptr inbounds i8, ptr %269, i64 %271
  %273 = load ptr, ptr %272, align 8
  %274 = load i32, ptr %22, align 4
  %275 = mul nsw i32 2, %274
  %276 = sext i32 %275 to i64
  %277 = getelementptr inbounds double, ptr %273, i64 %276
  store ptr %277, ptr %21, align 8
  %278 = load ptr, ptr %21, align 8
  %279 = load i32, ptr %24, align 4
  %280 = sext i32 %279 to i64
  %281 = getelementptr inbounds i8, ptr %278, i64 %280
  store ptr %281, ptr %27, align 8
  %282 = load double, ptr %28, align 8
  %283 = load double, ptr %29, align 8
  %284 = fmul double %282, %283
  store double %284, ptr %33, align 8
  %285 = load double, ptr %28, align 8
  %286 = fsub double 1.000000e+00, %285
  %287 = load double, ptr %29, align 8
  %288 = fmul double %286, %287
  store double %288, ptr %32, align 8
  %289 = load double, ptr %28, align 8
  %290 = load double, ptr %29, align 8
  %291 = fsub double 1.000000e+00, %290
  %292 = fmul double %289, %291
  store double %292, ptr %31, align 8
  %293 = load double, ptr %28, align 8
  %294 = fsub double 1.000000e+00, %293
  %295 = load double, ptr %29, align 8
  %296 = fsub double 1.000000e+00, %295
  %297 = fmul double %294, %296
  store double %297, ptr %30, align 8
  %298 = load ptr, ptr %21, align 8
  %299 = getelementptr inbounds double, ptr %298, i64 2
  %300 = load double, ptr %299, align 8
  store double %300, ptr %35, align 8
  %301 = load ptr, ptr %21, align 8
  %302 = getelementptr inbounds double, ptr %301, i64 3
  %303 = load double, ptr %302, align 8
  store double %303, ptr %39, align 8
  %304 = load ptr, ptr %21, align 8
  %305 = getelementptr inbounds double, ptr %304, i64 0
  %306 = load double, ptr %305, align 8
  store double %306, ptr %34, align 8
  %307 = load ptr, ptr %21, align 8
  %308 = getelementptr inbounds double, ptr %307, i64 1
  %309 = load double, ptr %308, align 8
  store double %309, ptr %38, align 8
  %310 = load ptr, ptr %27, align 8
  %311 = getelementptr inbounds double, ptr %310, i64 0
  %312 = load double, ptr %311, align 8
  store double %312, ptr %36, align 8
  %313 = load ptr, ptr %27, align 8
  %314 = getelementptr inbounds double, ptr %313, i64 1
  %315 = load double, ptr %314, align 8
  store double %315, ptr %40, align 8
  %316 = load ptr, ptr %27, align 8
  %317 = getelementptr inbounds double, ptr %316, i64 2
  %318 = load double, ptr %317, align 8
  store double %318, ptr %37, align 8
  %319 = load ptr, ptr %27, align 8
  %320 = getelementptr inbounds double, ptr %319, i64 3
  %321 = load double, ptr %320, align 8
  store double %321, ptr %41, align 8
  %322 = load double, ptr %42, align 8
  %323 = load ptr, ptr %20, align 8
  %324 = getelementptr inbounds double, ptr %323, i64 0
  store double %322, ptr %324, align 8
  %325 = load double, ptr %43, align 8
  %326 = load ptr, ptr %20, align 8
  %327 = getelementptr inbounds double, ptr %326, i64 1
  store double %325, ptr %327, align 8
  br label %328

328:                                              ; preds = %223
  %329 = load ptr, ptr %20, align 8
  %330 = getelementptr inbounds double, ptr %329, i64 2
  store ptr %330, ptr %20, align 8
  br label %219, !llvm.loop !9

331:                                              ; preds = %219
  %332 = load double, ptr %30, align 8
  %333 = load double, ptr %34, align 8
  %334 = load double, ptr %31, align 8
  %335 = load double, ptr %35, align 8
  %336 = fmul double %334, %335
  %337 = call double @llvm.fmuladd.f64(double %332, double %333, double %336)
  %338 = load double, ptr %32, align 8
  %339 = load double, ptr %36, align 8
  %340 = call double @llvm.fmuladd.f64(double %338, double %339, double %337)
  %341 = load double, ptr %33, align 8
  %342 = load double, ptr %37, align 8
  %343 = call double @llvm.fmuladd.f64(double %341, double %342, double %340)
  store double %343, ptr %42, align 8
  %344 = load double, ptr %30, align 8
  %345 = load double, ptr %38, align 8
  %346 = load double, ptr %31, align 8
  %347 = load double, ptr %39, align 8
  %348 = fmul double %346, %347
  %349 = call double @llvm.fmuladd.f64(double %344, double %345, double %348)
  %350 = load double, ptr %32, align 8
  %351 = load double, ptr %40, align 8
  %352 = call double @llvm.fmuladd.f64(double %350, double %351, double %349)
  %353 = load double, ptr %33, align 8
  %354 = load double, ptr %41, align 8
  %355 = call double @llvm.fmuladd.f64(double %353, double %354, double %352)
  store double %355, ptr %43, align 8
  %356 = load double, ptr %42, align 8
  %357 = load ptr, ptr %20, align 8
  %358 = getelementptr inbounds double, ptr %357, i64 0
  store double %356, ptr %358, align 8
  %359 = load double, ptr %43, align 8
  %360 = load ptr, ptr %20, align 8
  %361 = getelementptr inbounds double, ptr %360, i64 1
  store double %359, ptr %361, align 8
  br label %362

362:                                              ; preds = %331, %133
  %363 = load i32, ptr %18, align 4
  %364 = add nsw i32 %363, 1
  store i32 %364, ptr %18, align 4
  br label %84, !llvm.loop !10

365:                                              ; preds = %84
  ret i32 0
}