; Function Attrs: nofree norecurse nosync nounwind memory(readwrite, inaccessiblemem: none) uwtable
define hidden noundef i32 @mlib_ImageAffine_d64_2ch_bl(ptr nocapture noundef readonly %0) local_unnamed_addr #0 {
  %2 = getelementptr inbounds i8, ptr %0, i64 40
  %3 = load ptr, ptr %2, align 8
  %4 = getelementptr inbounds i8, ptr %0, i64 48
  %5 = load ptr, ptr %4, align 8
  %6 = getelementptr inbounds i8, ptr %0, i64 56
  %7 = load ptr, ptr %6, align 8
  %8 = getelementptr inbounds i8, ptr %0, i64 64
  %9 = load ptr, ptr %8, align 8
  %10 = getelementptr inbounds i8, ptr %0, i64 24
  %11 = load ptr, ptr %10, align 8
  %12 = getelementptr inbounds i8, ptr %0, i64 72
  %13 = load i32, ptr %12, align 8
  %14 = getelementptr inbounds i8, ptr %0, i64 76
  %15 = load i32, ptr %14, align 4
  %16 = getelementptr inbounds i8, ptr %0, i64 104
  %17 = load ptr, ptr %16, align 8
  %.not193 = icmp sgt i32 %13, %15
  br i1 %.not193, label %._crit_edge200, label %.lr.ph199

.lr.ph199:                                        ; preds = %1
  %18 = getelementptr inbounds i8, ptr %0, i64 92
  %19 = load i32, ptr %18, align 4
  %20 = getelementptr inbounds i8, ptr %0, i64 84
  %21 = load i32, ptr %20, align 4
  %22 = getelementptr inbounds i8, ptr %0, i64 80
  %23 = load i32, ptr %22, align 8
  %24 = getelementptr inbounds i8, ptr %0, i64 96
  %25 = load i32, ptr %24, align 8
  %26 = getelementptr inbounds i8, ptr %0, i64 32
  %27 = load ptr, ptr %26, align 8
  %28 = sext i32 %25 to i64
  %.not164 = icmp eq ptr %17, null
  %29 = sext i32 %19 to i64
  %30 = sext i32 %13 to i64
  %31 = add i32 %15, 1
  br label %32

32:                                               ; preds = %.lr.ph199, %149
  %indvars.iv = phi i64 [ %30, %.lr.ph199 ], [ %indvars.iv.next, %149 ]
  %.0153197 = phi ptr [ %27, %.lr.ph199 ], [ %33, %149 ]
  %.0157196 = phi i32 [ %23, %.lr.ph199 ], [ %.1, %149 ]
  %.0159194 = phi i32 [ %21, %.lr.ph199 ], [ %.1160, %149 ]
  %33 = getelementptr inbounds i8, ptr %.0153197, i64 %28
  %34 = getelementptr inbounds i32, ptr %3, i64 %indvars.iv
  %35 = load i32, ptr %34, align 4
  %36 = getelementptr inbounds i32, ptr %5, i64 %indvars.iv
  %37 = load i32, ptr %36, align 4
  %38 = getelementptr inbounds i32, ptr %7, i64 %indvars.iv
  %39 = load i32, ptr %38, align 4
  %40 = getelementptr inbounds i32, ptr %9, i64 %indvars.iv
  %41 = load i32, ptr %40, align 4
  br i1 %.not164, label %49, label %42

42:                                               ; preds = %32
  %43 = shl nsw i64 %indvars.iv, 1
  %44 = getelementptr inbounds i32, ptr %17, i64 %43
  %45 = load i32, ptr %44, align 4
  %46 = or disjoint i64 %43, 1
  %47 = getelementptr inbounds i32, ptr %17, i64 %46
  %48 = load i32, ptr %47, align 4
  br label %49

49:                                               ; preds = %42, %32
  %.1160 = phi i32 [ %48, %42 ], [ %.0159194, %32 ]
  %.1 = phi i32 [ %45, %42 ], [ %.0157196, %32 ]
  %50 = icmp sgt i32 %35, %37
  br i1 %50, label %149, label %51

51:                                               ; preds = %49
  %52 = shl nsw i32 %35, 1
  %53 = sext i32 %52 to i64
  %54 = getelementptr inbounds double, ptr %33, i64 %53
  %55 = shl nsw i32 %37, 1
  %56 = sext i32 %55 to i64
  %57 = getelementptr inbounds double, ptr %33, i64 %56
  %58 = and i32 %39, 65535
  %59 = uitofp nneg i32 %58 to double
  %60 = fmul double %59, 0x3EF0000000000000
  %61 = and i32 %41, 65535
  %62 = uitofp nneg i32 %61 to double
  %63 = fmul double %62, 0x3EF0000000000000
  %64 = ashr i32 %41, 13
  %65 = and i32 %64, -8
  %66 = sext i32 %65 to i64
  %67 = getelementptr inbounds i8, ptr %11, i64 %66
  %68 = load ptr, ptr %67, align 8
  %69 = ashr i32 %39, 15
  %70 = and i32 %69, -2
  %71 = sext i32 %70 to i64
  %72 = getelementptr inbounds double, ptr %68, i64 %71
  %73 = getelementptr inbounds i8, ptr %72, i64 %29
  %74 = fmul double %60, %63
  %75 = fsub double 1.000000e+00, %60
  %76 = fmul double %75, %63
  %77 = fsub double 1.000000e+00, %63
  %78 = fmul double %60, %77
  %79 = fmul double %75, %77
  %80 = getelementptr inbounds i8, ptr %72, i64 16
  %81 = getelementptr inbounds i8, ptr %73, i64 16
  %82 = load <2 x double>, ptr %72, align 8
  %83 = load <2 x double>, ptr %80, align 8
  %84 = load <2 x double>, ptr %73, align 8
  %85 = load <2 x double>, ptr %81, align 8
  %86 = icmp slt i32 %52, %55
  br i1 %86, label %.lr.ph, label %._crit_edge

.lr.ph:                                           ; preds = %51, %.lr.ph
  %.0149172 = phi double [ %110, %.lr.ph ], [ %74, %51 ]
  %.0150171 = phi double [ %112, %.lr.ph ], [ %76, %51 ]
  %.0151170 = phi double [ %114, %.lr.ph ], [ %78, %51 ]
  %.0152169 = phi double [ %115, %.lr.ph ], [ %79, %51 ]
  %.pn165168 = phi i32 [ %.0154, %.lr.ph ], [ %39, %51 ]
  %.pn167 = phi i32 [ %.0155, %.lr.ph ], [ %41, %51 ]
  %.0156166 = phi ptr [ %131, %.lr.ph ], [ %54, %51 ]
  %87 = phi <2 x double> [ %121, %.lr.ph ], [ %85, %51 ]
  %88 = phi <2 x double> [ %120, %.lr.ph ], [ %84, %51 ]
  %89 = phi <2 x double> [ %119, %.lr.ph ], [ %82, %51 ]
  %90 = phi <2 x double> [ %118, %.lr.ph ], [ %83, %51 ]
  %.0154 = add nsw i32 %.pn165168, %.1
  %.0155 = add nsw i32 %.pn167, %.1160
  %91 = insertelement <2 x double> poison, double %.0151170, i64 0
  %92 = shufflevector <2 x double> %91, <2 x double> poison, <2 x i32> zeroinitializer
  %93 = fmul <2 x double> %92, %90
  %94 = and i32 %.0154, 65535
  %95 = uitofp nneg i32 %94 to double
  %96 = fmul double %95, 0x3EF0000000000000
  %97 = and i32 %.0155, 65535
  %98 = uitofp nneg i32 %97 to double
  %99 = fmul double %98, 0x3EF0000000000000
  %100 = ashr i32 %.0155, 13
  %101 = and i32 %100, -8
  %102 = sext i32 %101 to i64
  %103 = getelementptr inbounds i8, ptr %11, i64 %102
  %104 = load ptr, ptr %103, align 8
  %105 = ashr i32 %.0154, 15
  %106 = and i32 %105, -2
  %107 = sext i32 %106 to i64
  %108 = getelementptr inbounds double, ptr %104, i64 %107
  %109 = getelementptr inbounds i8, ptr %108, i64 %29
  %110 = fmul double %99, %96
  %111 = fsub double 1.000000e+00, %96
  %112 = fmul double %99, %111
  %113 = fsub double 1.000000e+00, %99
  %114 = fmul double %96, %113
  %115 = fmul double %113, %111
  %116 = getelementptr inbounds i8, ptr %108, i64 16
  %117 = getelementptr inbounds i8, ptr %109, i64 16
  %118 = load <2 x double>, ptr %116, align 8
  %119 = load <2 x double>, ptr %108, align 8
  %120 = load <2 x double>, ptr %109, align 8
  %121 = load <2 x double>, ptr %117, align 8
  %122 = insertelement <2 x double> poison, double %.0152169, i64 0
  %123 = shufflevector <2 x double> %122, <2 x double> poison, <2 x i32> zeroinitializer
  %124 = tail call <2 x double> @llvm.fmuladd.v2f64(<2 x double> %123, <2 x double> %89, <2 x double> %93)
  %125 = insertelement <2 x double> poison, double %.0150171, i64 0
  %126 = shufflevector <2 x double> %125, <2 x double> poison, <2 x i32> zeroinitializer
  %127 = tail call <2 x double> @llvm.fmuladd.v2f64(<2 x double> %126, <2 x double> %88, <2 x double> %124)
  %128 = insertelement <2 x double> poison, double %.0149172, i64 0
  %129 = shufflevector <2 x double> %128, <2 x double> poison, <2 x i32> zeroinitializer
  %130 = tail call <2 x double> @llvm.fmuladd.v2f64(<2 x double> %129, <2 x double> %87, <2 x double> %127)
  store <2 x double> %130, ptr %.0156166, align 8
  %131 = getelementptr inbounds i8, ptr %.0156166, i64 16
  %132 = icmp ult ptr %131, %57
  br i1 %132, label %.lr.ph, label %._crit_edge, !llvm.loop !9

._crit_edge:                                      ; preds = %.lr.ph, %51
  %.0156.lcssa = phi ptr [ %54, %51 ], [ %131, %.lr.ph ]
  %.0152.lcssa = phi double [ %79, %51 ], [ %115, %.lr.ph ]
  %.0151.lcssa = phi double [ %78, %51 ], [ %114, %.lr.ph ]
  %.0150.lcssa = phi double [ %76, %51 ], [ %112, %.lr.ph ]
  %.0149.lcssa = phi double [ %74, %51 ], [ %110, %.lr.ph ]
  %133 = phi <2 x double> [ %85, %51 ], [ %121, %.lr.ph ]
  %134 = phi <2 x double> [ %84, %51 ], [ %120, %.lr.ph ]
  %135 = phi <2 x double> [ %82, %51 ], [ %119, %.lr.ph ]
  %136 = phi <2 x double> [ %83, %51 ], [ %118, %.lr.ph ]
  %137 = insertelement <2 x double> poison, double %.0151.lcssa, i64 0
  %138 = shufflevector <2 x double> %137, <2 x double> poison, <2 x i32> zeroinitializer
  %139 = fmul <2 x double> %138, %136
  %140 = insertelement <2 x double> poison, double %.0152.lcssa, i64 0
  %141 = shufflevector <2 x double> %140, <2 x double> poison, <2 x i32> zeroinitializer
  %142 = tail call <2 x double> @llvm.fmuladd.v2f64(<2 x double> %141, <2 x double> %135, <2 x double> %139)
  %143 = insertelement <2 x double> poison, double %.0150.lcssa, i64 0
  %144 = shufflevector <2 x double> %143, <2 x double> poison, <2 x i32> zeroinitializer
  %145 = tail call <2 x double> @llvm.fmuladd.v2f64(<2 x double> %144, <2 x double> %134, <2 x double> %142)
  %146 = insertelement <2 x double> poison, double %.0149.lcssa, i64 0
  %147 = shufflevector <2 x double> %146, <2 x double> poison, <2 x i32> zeroinitializer
  %148 = tail call <2 x double> @llvm.fmuladd.v2f64(<2 x double> %147, <2 x double> %133, <2 x double> %145)
  store <2 x double> %148, ptr %.0156.lcssa, align 8
  br label %149

149:                                              ; preds = %49, %._crit_edge
  %indvars.iv.next = add nsw i64 %indvars.iv, 1
  %lftr.wideiv = trunc i64 %indvars.iv.next to i32
  %exitcond.not = icmp eq i32 %31, %lftr.wideiv
  br i1 %exitcond.not, label %._crit_edge200, label %32, !llvm.loop !10

._crit_edge200:                                   ; preds = %149, %1
  ret i32 0
}